target datalayout = "e-m:e-p270:32:32-p271:32:32-p272:64:64-i64:64-i128:128-f80:128-n8:16:32:64-S128"
target triple = "x86_64-pc-linux-gnu"

; Function Attrs: nounwind uwtable
define internal void @blend_hline16(ptr noundef %0, i32 noundef %1, i32 noundef %2, float noundef %3, float noundef %4, i32 noundef %5, i32 noundef %6) #1 {
  %8 = alloca ptr, align 8
  %9 = alloca i32, align 4
  %10 = alloca i32, align 4
  %11 = alloca float, align 4
  %12 = alloca float, align 4
  %13 = alloca i32, align 4
  %14 = alloca i32, align 4
  %15 = alloca ptr, align 8
  %16 = alloca i32, align 4
  store ptr %0, ptr %8, align 8, !tbaa !77
  store i32 %1, ptr %9, align 4, !tbaa !47
  store i32 %2, ptr %10, align 4, !tbaa !47
  store float %3, ptr %11, align 4, !tbaa !69
  store float %4, ptr %12, align 4, !tbaa !69
  store i32 %5, ptr %13, align 4, !tbaa !47
  store i32 %6, ptr %14, align 4, !tbaa !47
  call void @llvm.lifetime.start.p0(i64 8, ptr %15) #10
  %17 = load ptr, ptr %8, align 8, !tbaa !77
  store ptr %17, ptr %15, align 8, !tbaa !79
  call void @llvm.lifetime.start.p0(i64 4, ptr %16) #10
  store i32 0, ptr %16, align 4, !tbaa !47
  br label %18

18:                                               ; preds = %41, %7
  %19 = load i32, ptr %16, align 4, !tbaa !47
  %20 = load i32, ptr %9, align 4, !tbaa !47
  %21 = icmp slt i32 %19, %20
  br i1 %21, label %22, label %45

22:                                               ; preds = %18
  %23 = load i32, ptr %13, align 4, !tbaa !47
  %24 = sitofp i32 %23 to float
  %25 = load float, ptr %11, align 4, !tbaa !69
  %26 = load ptr, ptr %15, align 8, !tbaa !79
  %27 = load i32, ptr %16, align 4, !tbaa !47
  %28 = sext i32 %27 to i64
  %29 = getelementptr inbounds i16, ptr %26, i64 %28
  %30 = load i16, ptr %29, align 2, !tbaa !81
  %31 = zext i16 %30 to i32
  %32 = sitofp i32 %31 to float
  %33 = load float, ptr %12, align 4, !tbaa !69
  %34 = fmul nsz float %32, %33
  %35 = call nsz float @llvm.fmuladd.f32(float %24, float %25, float %34)
  %36 = fptoui float %35 to i16
  %37 = load ptr, ptr %15, align 8, !tbaa !79
  %38 = load i32, ptr %16, align 4, !tbaa !47
  %39 = sext i32 %38 to i64
  %40 = getelementptr inbounds i16, ptr %37, i64 %39
  store i16 %36, ptr %40, align 2, !tbaa !81
  br label %41

41:                                               ; preds = %22
  %42 = load i32, ptr %14, align 4, !tbaa !47
  %43 = load i32, ptr %16, align 4, !tbaa !47
  %44 = add nsw i32 %43, %42
  store i32 %44, ptr %16, align 4, !tbaa !47
  br label %18, !llvm.loop !211

45:                                               ; preds = %18
  call void @llvm.lifetime.end.p0(i64 4, ptr %16) #10
  call void @llvm.lifetime.end.p0(i64 8, ptr %15) #10
  ret void
}